; Function Attrs: mustprogress nounwind uwtable
define internal void @"_ZN4node13CallbackQueueIvJPNS_11EnvironmentEEE12CallbackImplIZZNS_6worker6Worker11StartThreadERKN2v820FunctionCallbackInfoINS7_5ValueEEEENK3$_0clEPvEUlS2_E_ED2Ev"(ptr nocapture noundef nonnull align 8 dereferenceable(32) %this) unnamed_addr #3 align 2 {
entry:
  %callback_ = getelementptr inbounds i8, ptr %this, i64 24
  %0 = load ptr, ptr %callback_, align 8
  %cmp.not.i.i = icmp eq ptr %0, null
  br i1 %cmp.not.i.i, label %"_ZZZN4node6worker6Worker11StartThreadERKN2v820FunctionCallbackInfoINS2_5ValueEEEENK3$_0clEPvENUlPNS_11EnvironmentEE_D2Ev.exit", label %_ZNKSt14default_deleteIN4node6worker6WorkerEEclEPS2_.exit.i.i

_ZNKSt14default_deleteIN4node6worker6WorkerEEclEPS2_.exit.i.i: ; preds = %entry
  %vtable.i.i.i = load ptr, ptr %0, align 8
  %vfn.i.i.i = getelementptr inbounds i8, ptr %vtable.i.i.i, i64 8
  %1 = load ptr, ptr %vfn.i.i.i, align 8
  tail call void %1(ptr noundef nonnull align 8 dereferenceable(392) %0) #23
  br label %"_ZZZN4node6worker6Worker11StartThreadERKN2v820FunctionCallbackInfoINS2_5ValueEEEENK3$_0clEPvENUlPNS_11EnvironmentEE_D2Ev.exit"

"_ZZZN4node6worker6Worker11StartThreadERKN2v820FunctionCallbackInfoINS2_5ValueEEEENK3$_0clEPvENUlPNS_11EnvironmentEE_D2Ev.exit": ; preds = %entry, %_ZNKSt14default_deleteIN4node6worker6WorkerEEclEPS2_.exit.i.i
  store ptr null, ptr %callback_, align 8
  store ptr getelementptr inbounds ({ [5 x ptr] }, ptr @_ZTVN4node13CallbackQueueIvJPNS_11EnvironmentEEE8CallbackE, i64 0, i32 0, i64 2), ptr %this, align 8
  %next_.i = getelementptr inbounds i8, ptr %this, i64 16
  %2 = load ptr, ptr %next_.i, align 8
  %cmp.not.i.i1 = icmp eq ptr %2, null
  br i1 %cmp.not.i.i1, label %_ZN4node13CallbackQueueIvJPNS_11EnvironmentEEE8CallbackD2Ev.exit, label %_ZNKSt14default_deleteIN4node13CallbackQueueIvJPNS0_11EnvironmentEEE8CallbackEEclEPS5_.exit.i.i

_ZNKSt14default_deleteIN4node13CallbackQueueIvJPNS0_11EnvironmentEEE8CallbackEEclEPS5_.exit.i.i: ; preds = %"_ZZZN4node6worker6Worker11StartThreadERKN2v820FunctionCallbackInfoINS2_5ValueEEEENK3$_0clEPvENUlPNS_11EnvironmentEE_D2Ev.exit"
  %vtable.i.i.i2 = load ptr, ptr %2, align 8
  %vfn.i.i.i3 = getelementptr inbounds i8, ptr %vtable.i.i.i2, i64 8
  %3 = load ptr, ptr %vfn.i.i.i3, align 8
  tail call void %3(ptr noundef nonnull align 8 dereferenceable(24) %2) #23
  br label %_ZN4node13CallbackQueueIvJPNS_11EnvironmentEEE8CallbackD2Ev.exit

_ZN4node13CallbackQueueIvJPNS_11EnvironmentEEE8CallbackD2Ev.exit: ; preds = %"_ZZZN4node6worker6Worker11StartThreadERKN2v820FunctionCallbackInfoINS2_5ValueEEEENK3$_0clEPvENUlPNS_11EnvironmentEE_D2Ev.exit", %_ZNKSt14default_deleteIN4node13CallbackQueueIvJPNS0_11EnvironmentEEE8CallbackEEclEPS5_.exit.i.i
  store ptr null, ptr %next_.i, align 8
  ret void
}